; Function Attrs: mustprogress nounwind uwtable
define hidden void @_ZN4cvc58internal18RemoveTermFormulasD0Ev(ptr noundef nonnull align 8 dereferenceable(160) initializes((0, 8)) %0) unnamed_addr #7 align 2 personality ptr @__gxx_personality_v0 {
  store ptr getelementptr inbounds nuw inrange(-16, 16) (i8, ptr @_ZTVN4cvc58internal18RemoveTermFormulasE, i64 16), ptr %0, align 8, !tbaa !3
  %2 = getelementptr inbounds nuw i8, ptr %0, i64 144
  %3 = load ptr, ptr %2, align 8, !tbaa !42
  %.not.i.i = icmp eq ptr %3, null
  br i1 %.not.i.i, label %_ZNSt10unique_ptrIN4cvc58internal11LazyCDProofESt14default_deleteIS2_EED2Ev.exit.i, label %_ZNKSt14default_deleteIN4cvc58internal11LazyCDProofEEclEPS2_.exit.i.i

_ZNKSt14default_deleteIN4cvc58internal11LazyCDProofEEclEPS2_.exit.i.i: ; preds = %1
  %4 = load ptr, ptr %3, align 8, !tbaa !3
  %5 = getelementptr inbounds nuw i8, ptr %4, i64 8
  %6 = load ptr, ptr %5, align 8
  tail call void %6(ptr noundef nonnull align 8 dereferenceable(408) %3) #25
  br label %_ZNSt10unique_ptrIN4cvc58internal11LazyCDProofESt14default_deleteIS2_EED2Ev.exit.i

_ZNSt10unique_ptrIN4cvc58internal11LazyCDProofESt14default_deleteIS2_EED2Ev.exit.i: ; preds = %_ZNKSt14default_deleteIN4cvc58internal11LazyCDProofEEclEPS2_.exit.i.i, %1
  store ptr null, ptr %2, align 8, !tbaa !42
  %7 = getelementptr inbounds nuw i8, ptr %0, i64 136
  %8 = load ptr, ptr %7, align 8, !tbaa !40
  %.not.i1.i = icmp eq ptr %8, null
  br i1 %.not.i1.i, label %_ZNSt10unique_ptrIN4cvc58internal19TConvProofGeneratorESt14default_deleteIS2_EED2Ev.exit.i, label %_ZNKSt14default_deleteIN4cvc58internal19TConvProofGeneratorEEclEPS2_.exit.i.i

_ZNKSt14default_deleteIN4cvc58internal19TConvProofGeneratorEEclEPS2_.exit.i.i: ; preds = %_ZNSt10unique_ptrIN4cvc58internal11LazyCDProofESt14default_deleteIS2_EED2Ev.exit.i
  %9 = load ptr, ptr %8, align 8, !tbaa !3
  %10 = getelementptr inbounds nuw i8, ptr %9, i64 8
  %11 = load ptr, ptr %10, align 8
  tail call void %11(ptr noundef nonnull align 8 dereferenceable(801) %8) #25
  br label %_ZNSt10unique_ptrIN4cvc58internal19TConvProofGeneratorESt14default_deleteIS2_EED2Ev.exit.i

_ZNSt10unique_ptrIN4cvc58internal19TConvProofGeneratorESt14default_deleteIS2_EED2Ev.exit.i: ; preds = %_ZNKSt14default_deleteIN4cvc58internal19TConvProofGeneratorEEclEPS2_.exit.i.i, %_ZNSt10unique_ptrIN4cvc58internal11LazyCDProofESt14default_deleteIS2_EED2Ev.exit.i
  store ptr null, ptr %7, align 8, !tbaa !40
  %12 = getelementptr inbounds nuw i8, ptr %0, i64 128
  %13 = load ptr, ptr %12, align 8, !tbaa !40
  %.not.i2.i = icmp eq ptr %13, null
  br i1 %.not.i2.i, label %_ZN4cvc58internal18RemoveTermFormulasD2Ev.exit, label %_ZNKSt14default_deleteIN4cvc58internal19TConvProofGeneratorEEclEPS2_.exit.i3.i

_ZNKSt14default_deleteIN4cvc58internal19TConvProofGeneratorEEclEPS2_.exit.i3.i: ; preds = %_ZNSt10unique_ptrIN4cvc58internal19TConvProofGeneratorESt14default_deleteIS2_EED2Ev.exit.i
  %14 = load ptr, ptr %13, align 8, !tbaa !3
  %15 = getelementptr inbounds nuw i8, ptr %14, i64 8
  %16 = load ptr, ptr %15, align 8
  tail call void %16(ptr noundef nonnull align 8 dereferenceable(801) %13) #25
  br label %_ZN4cvc58internal18RemoveTermFormulasD2Ev.exit

_ZN4cvc58internal18RemoveTermFormulasD2Ev.exit:   ; preds = %_ZNSt10unique_ptrIN4cvc58internal19TConvProofGeneratorESt14default_deleteIS2_EED2Ev.exit.i, %_ZNKSt14default_deleteIN4cvc58internal19TConvProofGeneratorEEclEPS2_.exit.i3.i
  store ptr null, ptr %12, align 8, !tbaa !40
  %17 = getelementptr inbounds nuw i8, ptr %0, i64 72
  tail call void @_ZN4cvc57context15CDInsertHashMapINS_8internal12NodeTemplateILb1EEES4_St4hashIS4_EED2Ev(ptr noundef nonnull align 8 dereferenceable(56) %17) #25
  %18 = getelementptr inbounds nuw i8, ptr %0, i64 16
  tail call void @_ZN4cvc57context15CDInsertHashMapISt4pairINS_8internal12NodeTemplateILb1EEEjES5_NS3_16PairHashFunctionIS5_jSt4hashIS5_ES8_IjEEEED2Ev(ptr noundef nonnull align 8 dereferenceable(56) %18) #25
  tail call void @_ZdlPvm(ptr noundef nonnull %0, i64 noundef 160) #24
  ret void
}